; ModuleID = 'bench/libsodium/original/crypto_onetimeauth.ll'
source_filename = "bench/libsodium/original/crypto_onetimeauth.ll"
target datalayout = "e-m:e-p270:32:32-p271:32:32-p272:64:64-i64:64-i128:128-f80:128-n8:16:32:64-S128"
target triple = "x86_64-pc-linux-gnu"

@.str = private unnamed_addr constant [9 x i8] c"poly1305\00", align 1

; Function Attrs: mustprogress nofree norecurse nosync nounwind ssp willreturn memory(none) uwtable
define dso_local noundef i64 @crypto_onetimeauth_statebytes() local_unnamed_addr #0 {
  ret i64 256
}

; Function Attrs: mustprogress nofree norecurse nosync nounwind ssp willreturn memory(none) uwtable
define dso_local noundef i64 @crypto_onetimeauth_bytes() local_unnamed_addr #0 {
  ret i64 16
}

; Function Attrs: mustprogress nofree norecurse nosync nounwind ssp willreturn memory(none) uwtable
define dso_local noundef i64 @crypto_onetimeauth_keybytes() local_unnamed_addr #0 {
  ret i64 32
}

; Function Attrs: nounwind ssp uwtable
define dso_local i32 @crypto_onetimeauth(ptr noundef nonnull %0, ptr noundef %1, i64 noundef %2, ptr noundef nonnull %3) local_unnamed_addr #1 {
  %5 = tail call i32 @crypto_onetimeauth_poly1305(ptr noundef nonnull %0, ptr noundef %1, i64 noundef %2, ptr noundef nonnull %3) #3
  ret i32 %5
}

declare i32 @crypto_onetimeauth_poly1305(ptr noundef, ptr noundef, i64 noundef, ptr noundef) local_unnamed_addr #2

; Function Attrs: nounwind ssp uwtable
define dso_local i32 @crypto_onetimeauth_verify(ptr noundef nonnull %0, ptr noundef %1, i64 noundef %2, ptr noundef nonnull %3) local_unnamed_addr #1 {
  %5 = tail call i32 @crypto_onetimeauth_poly1305_verify(ptr noundef nonnull %0, ptr noundef %1, i64 noundef %2, ptr noundef nonnull %3) #3
  ret i32 %5
}

declare i32 @crypto_onetimeauth_poly1305_verify(ptr noundef, ptr noundef, i64 noundef, ptr noundef) local_unnamed_addr #2

; Function Attrs: nounwind ssp uwtable
define dso_local i32 @crypto_onetimeauth_init(ptr noundef nonnull %0, ptr noundef nonnull %1) local_unnamed_addr #1 {
  %3 = tail call i32 @crypto_onetimeauth_poly1305_init(ptr noundef nonnull %0, ptr noundef nonnull %1) #3
  ret i32 %3
}

declare i32 @crypto_onetimeauth_poly1305_init(ptr noundef, ptr noundef) local_unnamed_addr #2

; Function Attrs: nounwind ssp uwtable
define dso_local i32 @crypto_onetimeauth_update(ptr noundef nonnull %0, ptr noundef %1, i64 noundef %2) local_unnamed_addr #1 {
  %4 = tail call i32 @crypto_onetimeauth_poly1305_update(ptr noundef nonnull %0, ptr noundef %1, i64 noundef %2) #3
  ret i32 %4
}

declare i32 @crypto_onetimeauth_poly1305_update(ptr noundef, ptr noundef, i64 noundef) local_unnamed_addr #2

; Function Attrs: nounwind ssp uwtable
define dso_local i32 @crypto_onetimeauth_final(ptr noundef nonnull %0, ptr noundef nonnull %1) local_unnamed_addr #1 {
  %3 = tail call i32 @crypto_onetimeauth_poly1305_final(ptr noundef nonnull %0, ptr noundef nonnull %1) #3
  ret i32 %3
}

declare i32 @crypto_onetimeauth_poly1305_final(ptr noundef, ptr noundef) local_unnamed_addr #2

; Function Attrs: mustprogress nofree norecurse nosync nounwind ssp willreturn memory(none) uwtable
define dso_local noundef nonnull ptr @crypto_onetimeauth_primitive() local_unnamed_addr #0 {
  ret ptr @.str
}

; Function Attrs: nounwind ssp uwtable
define dso_local void @crypto_onetimeauth_keygen(ptr noundef nonnull %0) local_unnamed_addr #1 {
  tail call void @randombytes_buf(ptr noundef nonnull %0, i64 noundef 32) #3
  ret void
}

declare void @randombytes_buf(ptr noundef, i64 noundef) local_unnamed_addr #2


!llvm.module.flags = !{!0, !1, !2, !3}

!0 = !{i32 1, !"wchar_size", i32 4}
!1 = !{i32 8, !"PIC Level", i32 2}
!2 = !{i32 7, !"PIE Level", i32 2}
!3 = !{i32 7, !"uwtable", i32 2}
